; Function Attrs: nounwind uwtable
define hidden void @aom_highbd_dc_predictor_16x64_c(ptr noundef %0, i64 noundef %1, ptr nocapture noundef readonly %2, ptr nocapture noundef readonly %3, i32 noundef %4) local_unnamed_addr #1 {
  br label %.lr.ph.i

.lr.ph.i:                                         ; preds = %.lr.ph.i, %5
  %indvars.iv.i = phi i64 [ 0, %5 ], [ %indvars.iv.next.i, %.lr.ph.i ]
  %.02730.i = phi i32 [ 0, %5 ], [ %9, %.lr.ph.i ]
  %6 = getelementptr inbounds i16, ptr %2, i64 %indvars.iv.i
  %7 = load i16, ptr %6, align 2
  %8 = zext i16 %7 to i32
  %9 = add nuw nsw i32 %.02730.i, %8
  %indvars.iv.next.i = add nuw nsw i64 %indvars.iv.i, 1
  %exitcond.not.i = icmp eq i64 %indvars.iv.next.i, 16
  br i1 %exitcond.not.i, label %.lr.ph34.i, label %.lr.ph.i, !llvm.loop !8

.lr.ph34.i:                                       ; preds = %.lr.ph.i, %.lr.ph34.i
  %indvars.iv43.i = phi i64 [ %indvars.iv.next44.i, %.lr.ph34.i ], [ 0, %.lr.ph.i ]
  %.132.i = phi i32 [ %13, %.lr.ph34.i ], [ %9, %.lr.ph.i ]
  %10 = getelementptr inbounds i16, ptr %3, i64 %indvars.iv43.i
  %11 = load i16, ptr %10, align 2
  %12 = zext i16 %11 to i32
  %13 = add nuw nsw i32 %.132.i, %12
  %indvars.iv.next44.i = add nuw nsw i64 %indvars.iv43.i, 1
  %exitcond47.not.i = icmp eq i64 %indvars.iv.next44.i, 64
  br i1 %exitcond47.not.i, label %._crit_edge.i, label %.lr.ph34.i, !llvm.loop !9

._crit_edge.i:                                    ; preds = %.lr.ph34.i
  %14 = add nuw nsw i32 %13, 40
  %15 = lshr i32 %14, 4
  %16 = mul nuw nsw i32 %15, 26215
  %17 = lshr i32 %16, 17
  br label %18

18:                                               ; preds = %18, %._crit_edge.i
  %.037.i = phi i32 [ 0, %._crit_edge.i ], [ %21, %18 ]
  %.02436.i = phi ptr [ %0, %._crit_edge.i ], [ %20, %18 ]
  %19 = tail call ptr @aom_memset16(ptr noundef %.02436.i, i32 noundef %17, i64 noundef 16) #8
  %20 = getelementptr inbounds i16, ptr %.02436.i, i64 %1
  %21 = add nuw nsw i32 %.037.i, 1
  %exitcond48.not.i = icmp eq i32 %21, 64
  br i1 %exitcond48.not.i, label %highbd_dc_predictor_rect.exit, label %18, !llvm.loop !10

highbd_dc_predictor_rect.exit:                    ; preds = %18
  ret void
}